target datalayout = "e-m:e-p270:32:32-p271:32:32-p272:64:64-i64:64-i128:128-f80:128-n8:16:32:64-S128"
target triple = "x86_64-pc-linux-gnu"

%"struct.state_graph::state_pp" = type { ptr, ptr }
%"class.smt::seq_regex" = type <{ ptr, ptr, ptr, %class.vector, %class.ptr_addr_map, %class.ref_vector, %class.state_graph, i32, [4 x i8] }>
%class.vector = type { ptr }
%class.ptr_addr_map = type { %class.table2map }
%class.table2map = type { %class.core_hashtable }
%class.core_hashtable = type <{ ptr, i32, i32, i32, [4 x i8] }>
%class.ref_vector = type { %class.ref_vector_core }
%class.ref_vector_core = type { %class.ref_manager_wrapper, %class.ptr_vector }
%class.ref_manager_wrapper = type { ptr }
%class.ptr_vector = type { %class.vector.0 }
%class.vector.0 = type { ptr }
%class.state_graph = type { %class.uint_set, %class.uint_set, %class.uint_set, %class.uint_set, %class.uint_set, %class.basic_union_find, %class.u_map, %class.u_map, %class.u_map, %"struct.state_graph::state_pp" }
%class.uint_set = type { %class.svector }
%class.svector = type { %class.vector.1 }
%class.vector.1 = type { ptr }
%class.basic_union_find = type { %class.svector, %class.svector, %class.svector }
%class.u_map = type { %class.map }
%class.map = type { %class.table2map.2 }
%class.table2map.2 = type { %class.core_hashtable.3 }
%class.core_hashtable.3 = type <{ ptr, i32, i32, i32, [4 x i8] }>
%struct._key_ptr_data = type <{ ptr, i32, [4 x i8] }>
%"class.std::__cxx11::basic_string" = type { %"struct.std::__cxx11::basic_string<char>::_Alloc_hider", i64, %union.anon }
%"struct.std::__cxx11::basic_string<char>::_Alloc_hider" = type { ptr }
%union.anon = type { i64, [8 x i8] }
%class.ptr_addr_map_entry = type { %struct._key_ptr_data }

; Function Attrs: mustprogress nounwind uwtable
define linkonce_odr hidden noundef zeroext i1 @_ZNK6ptr_eqI4exprEclEPS0_S2_(ptr noundef nonnull align 1 dereferenceable(1) %0, ptr noundef %1, ptr noundef %2) #4 comdat align 2 {
  %4 = alloca ptr, align 8
  %5 = alloca ptr, align 8
  %6 = alloca ptr, align 8
  store ptr %0, ptr %4, align 8, !tbaa !822
  store ptr %1, ptr %5, align 8, !tbaa !82
  store ptr %2, ptr %6, align 8, !tbaa !82
  %7 = load ptr, ptr %5, align 8, !tbaa !82
  %8 = load ptr, ptr %6, align 8, !tbaa !82
  %9 = icmp eq ptr %7, %8
  ret i1 %9
}

; Function Attrs: mustprogress uwtable
define linkonce_odr hidden noundef i32 @_ZNK8ptr_hashI4exprEclEPS0_(ptr noundef nonnull align 1 dereferenceable(1) %0, ptr noundef %1) #6 comdat align 2 {
  %3 = alloca ptr, align 8
  %4 = alloca ptr, align 8
  store ptr %0, ptr %3, align 8, !tbaa !820
  store ptr %1, ptr %4, align 8, !tbaa !82
  %5 = load ptr, ptr %4, align 8, !tbaa !82
  %6 = call noundef i32 @_Z12get_ptr_hashI4exprEjPT_(ptr noundef %5)
  ret i32 %6
}

; Function Attrs: mustprogress nounwind uwtable
define linkonce_odr hidden noundef zeroext i1 @_ZNK9table2mapI18ptr_addr_map_entryI4exprjE8ptr_hashIS1_E6ptr_eqIS1_EE13entry_eq_procclERK13_key_ptr_dataIS1_jESC_(ptr noundef nonnull align 1 dereferenceable(1) %0, ptr noundef nonnull align 8 dereferenceable(12) %1, ptr noundef nonnull align 8 dereferenceable(12) %2) #4 comdat align 2 {
  %4 = alloca ptr, align 8
  %5 = alloca ptr, align 8
  %6 = alloca ptr, align 8
  store ptr %0, ptr %4, align 8, !tbaa !826
  store ptr %1, ptr %5, align 8, !tbaa !835
  store ptr %2, ptr %6, align 8, !tbaa !835
  %7 = load ptr, ptr %4, align 8
  %8 = load ptr, ptr %5, align 8, !tbaa !835
  %9 = getelementptr inbounds nuw %struct._key_ptr_data, ptr %8, i32 0, i32 0
  %10 = load ptr, ptr %9, align 8, !tbaa !837
  %11 = load ptr, ptr %6, align 8, !tbaa !835
  %12 = getelementptr inbounds nuw %struct._key_ptr_data, ptr %11, i32 0, i32 0
  %13 = load ptr, ptr %12, align 8, !tbaa !837
  %14 = call noundef zeroext i1 @_ZNK6ptr_eqI4exprEclEPS0_S2_(ptr noundef nonnull align 1 dereferenceable(1) %7, ptr noundef %10, ptr noundef %13)
  ret i1 %14
}

; Function Attrs: inlinehint mustprogress nounwind uwtable
define linkonce_odr hidden noundef i32 @_Z12get_ptr_hashI4exprEjPT_(ptr noundef %0) #8 comdat {
  %2 = alloca ptr, align 8
  store ptr %0, ptr %2, align 8, !tbaa !82
  %3 = load ptr, ptr %2, align 8, !tbaa !82
  %4 = ptrtoint ptr %3 to i64
  %5 = trunc i64 %4 to i32
  ret i32 %5
}

; Function Attrs: mustprogress uwtable
define linkonce_odr hidden noundef i32 @_ZNK9table2mapI18ptr_addr_map_entryI4exprjE8ptr_hashIS1_E6ptr_eqIS1_EE15entry_hash_procclERK13_key_ptr_dataIS1_jE(ptr noundef nonnull align 1 dereferenceable(1) %0, ptr noundef nonnull align 8 dereferenceable(12) %1) #6 comdat align 2 {
  %3 = alloca ptr, align 8
  %4 = alloca ptr, align 8
  store ptr %0, ptr %3, align 8, !tbaa !824
  store ptr %1, ptr %4, align 8, !tbaa !835
  %5 = load ptr, ptr %3, align 8
  %6 = load ptr, ptr %4, align 8, !tbaa !835
  %7 = getelementptr inbounds nuw %struct._key_ptr_data, ptr %6, i32 0, i32 0
  %8 = load ptr, ptr %7, align 8, !tbaa !837
  %9 = call noundef i32 @_ZNK8ptr_hashI4exprEclEPS0_(ptr noundef nonnull align 1 dereferenceable(1) %5, ptr noundef %8)
  ret i32 %9
}

; Function Attrs: mustprogress nounwind uwtable
define linkonce_odr hidden noundef zeroext i1 @_ZNK18ptr_addr_map_entryI4exprjE7is_freeEv(ptr noundef nonnull align 8 dereferenceable(16) %0) #4 comdat align 2 {
  %2 = alloca ptr, align 8
  store ptr %0, ptr %2, align 8, !tbaa !814
  %3 = load ptr, ptr %2, align 8
  %4 = getelementptr inbounds nuw %class.ptr_addr_map_entry, ptr %3, i32 0, i32 0
  %5 = getelementptr inbounds nuw %struct._key_ptr_data, ptr %4, i32 0, i32 0
  %6 = load ptr, ptr %5, align 8, !tbaa !1159
  %7 = icmp eq ptr %6, null
  ret i1 %7
}

; Function Attrs: mustprogress uwtable
define linkonce_odr hidden noundef zeroext i1 @_ZNK14core_hashtableI18ptr_addr_map_entryI4exprjEN9table2mapIS2_8ptr_hashIS1_E6ptr_eqIS1_EE15entry_hash_procENS8_13entry_eq_procEE6equalsERK13_key_ptr_dataIS1_jESF_(ptr noundef nonnull align 8 dereferenceable(20) %0, ptr noundef nonnull align 8 dereferenceable(12) %1, ptr noundef nonnull align 8 dereferenceable(12) %2) #6 comdat align 2 {
  %4 = alloca ptr, align 8
  %5 = alloca ptr, align 8
  %6 = alloca ptr, align 8
  store ptr %0, ptr %4, align 8, !tbaa !828
  store ptr %1, ptr %5, align 8, !tbaa !835
  store ptr %2, ptr %6, align 8, !tbaa !835
  %7 = load ptr, ptr %4, align 8
  %8 = load ptr, ptr %5, align 8, !tbaa !835
  %9 = load ptr, ptr %6, align 8, !tbaa !835
  %10 = call noundef zeroext i1 @_ZNK9table2mapI18ptr_addr_map_entryI4exprjE8ptr_hashIS1_E6ptr_eqIS1_EE13entry_eq_procclERK13_key_ptr_dataIS1_jESC_(ptr noundef nonnull align 1 dereferenceable(1) %7, ptr noundef nonnull align 8 dereferenceable(12) %8, ptr noundef nonnull align 8 dereferenceable(12) %9)
  ret i1 %10
}

; Function Attrs: mustprogress nounwind uwtable
define linkonce_odr hidden noundef nonnull align 8 dereferenceable(12) ptr @_ZN18ptr_addr_map_entryI4exprjE8get_dataEv(ptr noundef nonnull align 8 dereferenceable(16) %0) #4 comdat align 2 {
  %2 = alloca ptr, align 8
  store ptr %0, ptr %2, align 8, !tbaa !814
  %3 = load ptr, ptr %2, align 8
  %4 = getelementptr inbounds nuw %class.ptr_addr_map_entry, ptr %3, i32 0, i32 0
  ret ptr %4
}

; Function Attrs: mustprogress nounwind uwtable
define linkonce_odr hidden noundef i32 @_ZNK18ptr_addr_map_entryI4exprjE8get_hashEv(ptr noundef nonnull align 8 dereferenceable(16) %0) #4 comdat align 2 {
  %2 = alloca ptr, align 8
  store ptr %0, ptr %2, align 8, !tbaa !814
  %3 = load ptr, ptr %2, align 8
  %4 = getelementptr inbounds nuw %class.ptr_addr_map_entry, ptr %3, i32 0, i32 0
  %5 = getelementptr inbounds nuw %struct._key_ptr_data, ptr %4, i32 0, i32 0
  %6 = load ptr, ptr %5, align 8, !tbaa !1159
  %7 = call noundef i32 @_Z12get_ptr_hashI4exprEjPT_(ptr noundef %6)
  ret i32 %7
}

; Function Attrs: mustprogress nounwind uwtable
define linkonce_odr hidden noundef zeroext i1 @_ZNK18ptr_addr_map_entryI4exprjE7is_usedEv(ptr noundef nonnull align 8 dereferenceable(16) %0) #4 comdat align 2 {
  %2 = alloca ptr, align 8
  store ptr %0, ptr %2, align 8, !tbaa !814
  %3 = load ptr, ptr %2, align 8
  %4 = getelementptr inbounds nuw %class.ptr_addr_map_entry, ptr %3, i32 0, i32 0
  %5 = getelementptr inbounds nuw %struct._key_ptr_data, ptr %4, i32 0, i32 0
  %6 = load ptr, ptr %5, align 8, !tbaa !1159
  %7 = icmp ne ptr %6, null
  br i1 %7, label %8, label %13

8:                                                ; preds = %1
  %9 = getelementptr inbounds nuw %class.ptr_addr_map_entry, ptr %3, i32 0, i32 0
  %10 = getelementptr inbounds nuw %struct._key_ptr_data, ptr %9, i32 0, i32 0
  %11 = load ptr, ptr %10, align 8, !tbaa !1159
  %12 = icmp ne ptr %11, inttoptr (i64 1 to ptr)
  br label %13

13:                                               ; preds = %8, %1
  %14 = phi i1 [ false, %1 ], [ %12, %8 ]
  ret i1 %14
}

; Function Attrs: mustprogress uwtable
define linkonce_odr hidden noundef i32 @_ZNK14core_hashtableI18ptr_addr_map_entryI4exprjEN9table2mapIS2_8ptr_hashIS1_E6ptr_eqIS1_EE15entry_hash_procENS8_13entry_eq_procEE8get_hashERK13_key_ptr_dataIS1_jE(ptr noundef nonnull align 8 dereferenceable(20) %0, ptr noundef nonnull align 8 dereferenceable(12) %1) #6 comdat align 2 {
  %3 = alloca ptr, align 8
  %4 = alloca ptr, align 8
  store ptr %0, ptr %3, align 8, !tbaa !828
  store ptr %1, ptr %4, align 8, !tbaa !835
  %5 = load ptr, ptr %3, align 8
  %6 = load ptr, ptr %4, align 8, !tbaa !835
  %7 = call noundef i32 @_ZNK9table2mapI18ptr_addr_map_entryI4exprjE8ptr_hashIS1_E6ptr_eqIS1_EE15entry_hash_procclERK13_key_ptr_dataIS1_jE(ptr noundef nonnull align 1 dereferenceable(1) %5, ptr noundef nonnull align 8 dereferenceable(12) %6)
  ret i32 %7
}

; Function Attrs: mustprogress uwtable
define linkonce_odr hidden noundef ptr @_ZNK14core_hashtableI18ptr_addr_map_entryI4exprjEN9table2mapIS2_8ptr_hashIS1_E6ptr_eqIS1_EE15entry_hash_procENS8_13entry_eq_procEE9find_coreERK13_key_ptr_dataIS1_jE(ptr noundef nonnull align 8 dereferenceable(20) %0, ptr noundef nonnull align 8 dereferenceable(12) %1) #6 comdat align 2 {
  %3 = alloca ptr, align 8
  %4 = alloca ptr, align 8
  %5 = alloca ptr, align 8
  %6 = alloca i32, align 4
  %7 = alloca i32, align 4
  %8 = alloca i32, align 4
  %9 = alloca ptr, align 8
  %10 = alloca ptr, align 8
  %11 = alloca ptr, align 8
  %12 = alloca i32, align 4
  store ptr %0, ptr %4, align 8, !tbaa !828
  store ptr %1, ptr %5, align 8, !tbaa !835
  %13 = load ptr, ptr %4, align 8
  call void @llvm.lifetime.start.p0(i64 4, ptr %6) #3
  %14 = load ptr, ptr %5, align 8, !tbaa !835
  %15 = call noundef i32 @_ZNK14core_hashtableI18ptr_addr_map_entryI4exprjEN9table2mapIS2_8ptr_hashIS1_E6ptr_eqIS1_EE15entry_hash_procENS8_13entry_eq_procEE8get_hashERK13_key_ptr_dataIS1_jE(ptr noundef nonnull align 8 dereferenceable(20) %13, ptr noundef nonnull align 8 dereferenceable(12) %14)
  store i32 %15, ptr %6, align 4, !tbaa !8
  call void @llvm.lifetime.start.p0(i64 4, ptr %7) #3
  %16 = getelementptr inbounds nuw %class.core_hashtable, ptr %13, i32 0, i32 1
  %17 = load i32, ptr %16, align 8, !tbaa !831
  %18 = sub i32 %17, 1
  store i32 %18, ptr %7, align 4, !tbaa !8
  call void @llvm.lifetime.start.p0(i64 4, ptr %8) #3
  %19 = load i32, ptr %6, align 4, !tbaa !8
  %20 = load i32, ptr %7, align 4, !tbaa !8
  %21 = and i32 %19, %20
  store i32 %21, ptr %8, align 4, !tbaa !8
  call void @llvm.lifetime.start.p0(i64 8, ptr %9) #3
  %22 = getelementptr inbounds nuw %class.core_hashtable, ptr %13, i32 0, i32 0
  %23 = load ptr, ptr %22, align 8, !tbaa !830
  %24 = load i32, ptr %8, align 4, !tbaa !8
  %25 = zext i32 %24 to i64
  %26 = getelementptr inbounds nuw %class.ptr_addr_map_entry, ptr %23, i64 %25
  store ptr %26, ptr %9, align 8, !tbaa !814
  call void @llvm.lifetime.start.p0(i64 8, ptr %10) #3
  %27 = getelementptr inbounds nuw %class.core_hashtable, ptr %13, i32 0, i32 0
  %28 = load ptr, ptr %27, align 8, !tbaa !830
  %29 = getelementptr inbounds nuw %class.core_hashtable, ptr %13, i32 0, i32 1
  %30 = load i32, ptr %29, align 8, !tbaa !831
  %31 = zext i32 %30 to i64
  %32 = getelementptr inbounds nuw %class.ptr_addr_map_entry, ptr %28, i64 %31
  store ptr %32, ptr %10, align 8, !tbaa !814
  call void @llvm.lifetime.start.p0(i64 8, ptr %11) #3
  %33 = load ptr, ptr %9, align 8, !tbaa !814
  store ptr %33, ptr %11, align 8, !tbaa !814
  br label %34

34:                                               ; preds = %61, %2
  %35 = load ptr, ptr %11, align 8, !tbaa !814
  %36 = load ptr, ptr %10, align 8, !tbaa !814
  %37 = icmp ne ptr %35, %36
  br i1 %37, label %38, label %64

38:                                               ; preds = %34
  %39 = load ptr, ptr %11, align 8, !tbaa !814
  %40 = call noundef zeroext i1 @_ZNK18ptr_addr_map_entryI4exprjE7is_usedEv(ptr noundef nonnull align 8 dereferenceable(16) %39)
  br i1 %40, label %41, label %54

41:                                               ; preds = %38
  %42 = load ptr, ptr %11, align 8, !tbaa !814
  %43 = call noundef i32 @_ZNK18ptr_addr_map_entryI4exprjE8get_hashEv(ptr noundef nonnull align 8 dereferenceable(16) %42)
  %44 = load i32, ptr %6, align 4, !tbaa !8
  %45 = icmp eq i32 %43, %44
  br i1 %45, label %46, label %53

46:                                               ; preds = %41
  %47 = load ptr, ptr %11, align 8, !tbaa !814
  %48 = call noundef nonnull align 8 dereferenceable(12) ptr @_ZN18ptr_addr_map_entryI4exprjE8get_dataEv(ptr noundef nonnull align 8 dereferenceable(16) %47)
  %49 = load ptr, ptr %5, align 8, !tbaa !835
  %50 = call noundef zeroext i1 @_ZNK14core_hashtableI18ptr_addr_map_entryI4exprjEN9table2mapIS2_8ptr_hashIS1_E6ptr_eqIS1_EE15entry_hash_procENS8_13entry_eq_procEE6equalsERK13_key_ptr_dataIS1_jESF_(ptr noundef nonnull align 8 dereferenceable(20) %13, ptr noundef nonnull align 8 dereferenceable(12) %48, ptr noundef nonnull align 8 dereferenceable(12) %49)
  br i1 %50, label %51, label %53

51:                                               ; preds = %46
  %52 = load ptr, ptr %11, align 8, !tbaa !814
  store ptr %52, ptr %3, align 8
  store i32 1, ptr %12, align 4
  br label %98

53:                                               ; preds = %46, %41
  br label %60

54:                                               ; preds = %38
  %55 = load ptr, ptr %11, align 8, !tbaa !814
  %56 = call noundef zeroext i1 @_ZNK18ptr_addr_map_entryI4exprjE7is_freeEv(ptr noundef nonnull align 8 dereferenceable(16) %55)
  br i1 %56, label %57, label %58

57:                                               ; preds = %54
  store ptr null, ptr %3, align 8
  store i32 1, ptr %12, align 4
  br label %98

58:                                               ; preds = %54
  br label %59

59:                                               ; preds = %58
  br label %60

60:                                               ; preds = %59, %53
  br label %61

61:                                               ; preds = %60
  %62 = load ptr, ptr %11, align 8, !tbaa !814
  %63 = getelementptr inbounds nuw %class.ptr_addr_map_entry, ptr %62, i32 1
  store ptr %63, ptr %11, align 8, !tbaa !814
  br label %34, !llvm.loop !1157

64:                                               ; preds = %34
  %65 = getelementptr inbounds nuw %class.core_hashtable, ptr %13, i32 0, i32 0
  %66 = load ptr, ptr %65, align 8, !tbaa !830
  store ptr %66, ptr %11, align 8, !tbaa !814
  br label %67

67:                                               ; preds = %94, %64
  %68 = load ptr, ptr %11, align 8, !tbaa !814
  %69 = load ptr, ptr %9, align 8, !tbaa !814
  %70 = icmp ne ptr %68, %69
  br i1 %70, label %71, label %97

71:                                               ; preds = %67
  %72 = load ptr, ptr %11, align 8, !tbaa !814
  %73 = call noundef zeroext i1 @_ZNK18ptr_addr_map_entryI4exprjE7is_usedEv(ptr noundef nonnull align 8 dereferenceable(16) %72)
  br i1 %73, label %74, label %87

74:                                               ; preds = %71
  %75 = load ptr, ptr %11, align 8, !tbaa !814
  %76 = call noundef i32 @_ZNK18ptr_addr_map_entryI4exprjE8get_hashEv(ptr noundef nonnull align 8 dereferenceable(16) %75)
  %77 = load i32, ptr %6, align 4, !tbaa !8
  %78 = icmp eq i32 %76, %77
  br i1 %78, label %79, label %86

79:                                               ; preds = %74
  %80 = load ptr, ptr %11, align 8, !tbaa !814
  %81 = call noundef nonnull align 8 dereferenceable(12) ptr @_ZN18ptr_addr_map_entryI4exprjE8get_dataEv(ptr noundef nonnull align 8 dereferenceable(16) %80)
  %82 = load ptr, ptr %5, align 8, !tbaa !835
  %83 = call noundef zeroext i1 @_ZNK14core_hashtableI18ptr_addr_map_entryI4exprjEN9table2mapIS2_8ptr_hashIS1_E6ptr_eqIS1_EE15entry_hash_procENS8_13entry_eq_procEE6equalsERK13_key_ptr_dataIS1_jESF_(ptr noundef nonnull align 8 dereferenceable(20) %13, ptr noundef nonnull align 8 dereferenceable(12) %81, ptr noundef nonnull align 8 dereferenceable(12) %82)
  br i1 %83, label %84, label %86

84:                                               ; preds = %79
  %85 = load ptr, ptr %11, align 8, !tbaa !814
  store ptr %85, ptr %3, align 8
  store i32 1, ptr %12, align 4
  br label %98

86:                                               ; preds = %79, %74
  br label %93

87:                                               ; preds = %71
  %88 = load ptr, ptr %11, align 8, !tbaa !814
  %89 = call noundef zeroext i1 @_ZNK18ptr_addr_map_entryI4exprjE7is_freeEv(ptr noundef nonnull align 8 dereferenceable(16) %88)
  br i1 %89, label %90, label %91

90:                                               ; preds = %87
  store ptr null, ptr %3, align 8
  store i32 1, ptr %12, align 4
  br label %98

91:                                               ; preds = %87
  br label %92

92:                                               ; preds = %91
  br label %93

93:                                               ; preds = %92, %86
  br label %94

94:                                               ; preds = %93
  %95 = load ptr, ptr %11, align 8, !tbaa !814
  %96 = getelementptr inbounds nuw %class.ptr_addr_map_entry, ptr %95, i32 1
  store ptr %96, ptr %11, align 8, !tbaa !814
  br label %67, !llvm.loop !1158

97:                                               ; preds = %67
  store ptr null, ptr %3, align 8
  store i32 1, ptr %12, align 4
  br label %98

98:                                               ; preds = %97, %90, %84, %57, %51
  call void @llvm.lifetime.end.p0(i64 8, ptr %11) #3
  call void @llvm.lifetime.end.p0(i64 8, ptr %10) #3
  call void @llvm.lifetime.end.p0(i64 8, ptr %9) #3
  call void @llvm.lifetime.end.p0(i64 4, ptr %8) #3
  call void @llvm.lifetime.end.p0(i64 4, ptr %7) #3
  call void @llvm.lifetime.end.p0(i64 4, ptr %6) #3
  %99 = load ptr, ptr %3, align 8
  ret ptr %99
}

; Function Attrs: mustprogress nounwind uwtable
define linkonce_odr hidden void @_ZN13_key_ptr_dataI4exprjEC2EPS0_(ptr noundef nonnull align 8 dereferenceable(12) %0, ptr noundef %1) unnamed_addr #4 comdat align 2 {
  %3 = alloca ptr, align 8
  %4 = alloca ptr, align 8
  store ptr %0, ptr %3, align 8, !tbaa !835
  store ptr %1, ptr %4, align 8, !tbaa !82
  %5 = load ptr, ptr %3, align 8
  %6 = getelementptr inbounds nuw %struct._key_ptr_data, ptr %5, i32 0, i32 0
  %7 = load ptr, ptr %4, align 8, !tbaa !82
  store ptr %7, ptr %6, align 8, !tbaa !837
  ret void
}

; Function Attrs: mustprogress uwtable
define linkonce_odr hidden noundef ptr @_ZNK9table2mapI18ptr_addr_map_entryI4exprjE8ptr_hashIS1_E6ptr_eqIS1_EE9find_coreERKPS1_(ptr noundef nonnull align 8 dereferenceable(24) %0, ptr noundef nonnull align 8 dereferenceable(8) %1) #6 comdat align 2 {
  %3 = alloca ptr, align 8
  %4 = alloca ptr, align 8
  %5 = alloca %struct._key_ptr_data, align 8
  store ptr %0, ptr %3, align 8, !tbaa !93
  store ptr %1, ptr %4, align 8, !tbaa !118
  %6 = load ptr, ptr %3, align 8
  %7 = getelementptr inbounds nuw %class.table2map, ptr %6, i32 0, i32 0
  call void @llvm.lifetime.start.p0(i64 16, ptr %5) #3
  %8 = load ptr, ptr %4, align 8, !tbaa !118
  %9 = load ptr, ptr %8, align 8, !tbaa !82
  call void @_ZN13_key_ptr_dataI4exprjEC2EPS0_(ptr noundef nonnull align 8 dereferenceable(12) %5, ptr noundef %9)
  %10 = call noundef ptr @_ZNK14core_hashtableI18ptr_addr_map_entryI4exprjEN9table2mapIS2_8ptr_hashIS1_E6ptr_eqIS1_EE15entry_hash_procENS8_13entry_eq_procEE9find_coreERK13_key_ptr_dataIS1_jE(ptr noundef nonnull align 8 dereferenceable(20) %7, ptr noundef nonnull align 8 dereferenceable(12) %5)
  call void @llvm.lifetime.end.p0(i64 16, ptr %5) #3
  ret ptr %10
}

; Function Attrs: mustprogress uwtable
define linkonce_odr hidden noundef zeroext i1 @_ZNK9table2mapI18ptr_addr_map_entryI4exprjE8ptr_hashIS1_E6ptr_eqIS1_EE8containsERKPS1_(ptr noundef nonnull align 8 dereferenceable(24) %0, ptr noundef nonnull align 8 dereferenceable(8) %1) #6 comdat align 2 {
  %3 = alloca ptr, align 8
  %4 = alloca ptr, align 8
  store ptr %0, ptr %3, align 8, !tbaa !93
  store ptr %1, ptr %4, align 8, !tbaa !118
  %5 = load ptr, ptr %3, align 8
  %6 = load ptr, ptr %4, align 8, !tbaa !118
  %7 = call noundef ptr @_ZNK9table2mapI18ptr_addr_map_entryI4exprjE8ptr_hashIS1_E6ptr_eqIS1_EE9find_coreERKPS1_(ptr noundef nonnull align 8 dereferenceable(24) %5, ptr noundef nonnull align 8 dereferenceable(8) %6)
  %8 = icmp ne ptr %7, null
  ret i1 %8
}

; Function Attrs: mustprogress uwtable
define hidden void @_ZN3smt9seq_regex9state_strB5cxx11EP4expr(ptr dead_on_unwind noalias writable sret(%"class.std::__cxx11::basic_string") align 8 %0, ptr noundef nonnull align 8 dereferenceable(228) %1, ptr noundef %2) #6 align 2 {
  %4 = alloca ptr, align 8
  %5 = alloca ptr, align 8
  %6 = alloca ptr, align 8
  store ptr %0, ptr %4, align 8
  store ptr %1, ptr %5, align 8, !tbaa !28
  store ptr %2, ptr %6, align 8, !tbaa !82
  %7 = load ptr, ptr %5, align 8
  %8 = getelementptr inbounds nuw %"class.smt::seq_regex", ptr %7, i32 0, i32 4
  %9 = call noundef zeroext i1 @_ZNK9table2mapI18ptr_addr_map_entryI4exprjE8ptr_hashIS1_E6ptr_eqIS1_EE8containsERKPS1_(ptr noundef nonnull align 8 dereferenceable(24) %8, ptr noundef nonnull align 8 dereferenceable(8) %6)
  br i1 %9, label %10, label %13

10:                                               ; preds = %3
  %11 = load ptr, ptr %6, align 8, !tbaa !82
  %12 = call noundef i32 @_ZN3smt9seq_regex12get_state_idEP4expr(ptr noundef nonnull align 8 dereferenceable(228) %7, ptr noundef %11)
  call void @_ZNSt7__cxx119to_stringEj(ptr dead_on_unwind writable sret(%"class.std::__cxx11::basic_string") align 8 %0, i32 noundef %12) #3
  br label %15

13:                                               ; preds = %3
  %14 = load ptr, ptr %6, align 8, !tbaa !82
  call void @_ZN3smt9seq_regex11expr_id_strB5cxx11EP4expr(ptr dead_on_unwind writable sret(%"class.std::__cxx11::basic_string") align 8 %0, ptr noundef nonnull align 8 dereferenceable(228) %7, ptr noundef %14)
  br label %15

15:                                               ; preds = %13, %10
  ret void
}