; Function Attrs: mustprogress uwtable
define hidden void @_ZN3smt9seq_regex9state_strB5cxx11EP4expr(ptr dead_on_unwind noalias writable sret(%"class.std::__cxx11::basic_string") align 8 %0, ptr noundef nonnull align 8 dereferenceable(228) %1, ptr noundef %2) local_unnamed_addr #4 align 2 {
  %4 = getelementptr inbounds nuw i8, ptr %1, i64 32
  %5 = ptrtoint ptr %2 to i64
  %6 = trunc i64 %5 to i32
  %7 = getelementptr inbounds nuw i8, ptr %1, i64 40
  %8 = load i32, ptr %7, align 8, !tbaa !35
  %9 = add i32 %8, -1
  %10 = and i32 %9, %6
  %11 = load ptr, ptr %4, align 8, !tbaa !32
  %12 = zext i32 %10 to i64
  %13 = getelementptr inbounds nuw %class.ptr_addr_map_entry, ptr %11, i64 %12
  %14 = zext i32 %8 to i64
  %15 = getelementptr inbounds nuw %class.ptr_addr_map_entry, ptr %11, i64 %14
  %.not35.i.i.i = icmp eq i32 %10, %8
  br i1 %.not35.i.i.i, label %.preheader.i.i.i, label %.lr.ph.i.i.i

.preheader.i.i.i:                                 ; preds = %21, %3
  %.not2737.i.i.i = icmp eq i32 %10, 0
  br i1 %.not2737.i.i.i, label %.loopexit, label %.lr.ph39.i.i.i

.lr.ph.i.i.i:                                     ; preds = %3, %21
  %.036.i.i.i = phi ptr [ %22, %21 ], [ %13, %3 ]
  %16 = load ptr, ptr %.036.i.i.i, align 8, !tbaa !232
  %magicptr30.i.i.i = ptrtoint ptr %16 to i64
  switch i64 %magicptr30.i.i.i, label %17 [
    i64 0, label %.loopexit
    i64 1, label %21
  ]

17:                                               ; preds = %.lr.ph.i.i.i
  %18 = trunc i64 %magicptr30.i.i.i to i32
  %19 = icmp eq i32 %18, %6
  %20 = icmp eq ptr %16, %2
  %or.cond.i.i.i = and i1 %20, %19
  br i1 %or.cond.i.i.i, label %_ZNK9table2mapI18ptr_addr_map_entryI4exprjE8ptr_hashIS1_E6ptr_eqIS1_EE8containsERKPS1_.exit, label %21

21:                                               ; preds = %17, %.lr.ph.i.i.i
  %22 = getelementptr inbounds nuw i8, ptr %.036.i.i.i, i64 16
  %.not.i.i.i = icmp eq ptr %22, %15
  br i1 %.not.i.i.i, label %.preheader.i.i.i, label %.lr.ph.i.i.i, !llvm.loop !234

.lr.ph39.i.i.i:                                   ; preds = %.preheader.i.i.i, %28
  %.138.i.i.i = phi ptr [ %29, %28 ], [ %11, %.preheader.i.i.i ]
  %23 = load ptr, ptr %.138.i.i.i, align 8, !tbaa !232
  %magicptr32.i.i.i = ptrtoint ptr %23 to i64
  switch i64 %magicptr32.i.i.i, label %24 [
    i64 0, label %.loopexit
    i64 1, label %28
  ]

24:                                               ; preds = %.lr.ph39.i.i.i
  %25 = trunc i64 %magicptr32.i.i.i to i32
  %26 = icmp eq i32 %25, %6
  %27 = icmp eq ptr %23, %2
  %or.cond31.i.i.i = and i1 %27, %26
  br i1 %or.cond31.i.i.i, label %_ZNK9table2mapI18ptr_addr_map_entryI4exprjE8ptr_hashIS1_E6ptr_eqIS1_EE8containsERKPS1_.exit, label %28

28:                                               ; preds = %24, %.lr.ph39.i.i.i
  %29 = getelementptr inbounds nuw i8, ptr %.138.i.i.i, i64 16
  %.not27.i.i.i = icmp eq ptr %29, %13
  br i1 %.not27.i.i.i, label %.loopexit, label %.lr.ph39.i.i.i, !llvm.loop !235

_ZNK9table2mapI18ptr_addr_map_entryI4exprjE8ptr_hashIS1_E6ptr_eqIS1_EE8containsERKPS1_.exit: ; preds = %17, %24
  %30 = tail call noundef i32 @_ZN3smt9seq_regex12get_state_idEP4expr(ptr noundef nonnull align 8 dereferenceable(228) %1, ptr noundef %2)
  tail call void @_ZNSt7__cxx119to_stringEj(ptr dead_on_unwind writable sret(%"class.std::__cxx11::basic_string") align 8 %0, i32 noundef %30) #24
  br label %31

.loopexit:                                        ; preds = %.lr.ph.i.i.i, %28, %.lr.ph39.i.i.i, %.preheader.i.i.i
  tail call void @_ZN3smt9seq_regex11expr_id_strB5cxx11EP4expr(ptr dead_on_unwind writable sret(%"class.std::__cxx11::basic_string") align 8 %0, ptr nonnull align 8 poison, ptr noundef %2)
  br label %31

31:                                               ; preds = %.loopexit, %_ZNK9table2mapI18ptr_addr_map_entryI4exprjE8ptr_hashIS1_E6ptr_eqIS1_EE8containsERKPS1_.exit
  ret void
}